target datalayout = "e-m:e-p270:32:32-p271:32:32-p272:64:64-i64:64-i128:128-f80:128-n8:16:32:64-S128"
target triple = "x86_64-pc-linux-gnu"

%struct.RBasic = type { i64, i64 }
%struct.RData = type { %struct.RBasic, ptr, ptr, ptr }
%struct.rb_proc_t = type { %struct.rb_block, i8 }
%struct.rb_block = type { %union.anon.12, i32 }
%union.anon.12 = type { %struct.rb_captured_block }
%struct.rb_captured_block = type { i64, ptr, %union.anon.13 }
%union.anon.13 = type { ptr }

; Function Attrs: nounwind sspstrong uwtable
define dso_local i32 @rb_proc_arity(i64 noundef %0) #0 {
  %2 = alloca i64, align 8
  %3 = alloca ptr, align 8
  %4 = alloca i32, align 4
  %5 = alloca i32, align 4
  store i64 %0, ptr %2, align 8, !tbaa !7
  call void @llvm.lifetime.start.p0(i64 8, ptr %3) #25
  call void @llvm.lifetime.start.p0(i64 4, ptr %4) #25
  call void @llvm.lifetime.start.p0(i64 4, ptr %5) #25
  %6 = load i64, ptr %2, align 8, !tbaa !7
  %7 = inttoptr i64 %6 to ptr
  %8 = getelementptr inbounds nuw %struct.RData, ptr %7, i32 0, i32 3
  %9 = load ptr, ptr %8, align 8, !tbaa !17
  store ptr %9, ptr %3, align 8, !tbaa !11
  %10 = load ptr, ptr %3, align 8, !tbaa !11
  %11 = getelementptr inbounds nuw %struct.rb_proc_t, ptr %10, i32 0, i32 0
  %12 = call i32 @rb_vm_block_min_max_arity(ptr noundef %11, ptr noundef %4)
  store i32 %12, ptr %5, align 4, !tbaa !36
  %13 = load ptr, ptr %3, align 8, !tbaa !11
  %14 = getelementptr inbounds nuw %struct.rb_proc_t, ptr %13, i32 0, i32 1
  %15 = load i8, ptr %14, align 8
  %16 = lshr i8 %15, 1
  %17 = and i8 %16, 1
  %18 = zext i8 %17 to i32
  %19 = icmp ne i32 %18, 0
  br i1 %19, label %20, label %24

20:                                               ; preds = %1
  %21 = load i32, ptr %5, align 4, !tbaa !36
  %22 = load i32, ptr %4, align 4, !tbaa !36
  %23 = icmp eq i32 %21, %22
  br i1 %23, label %27, label %29

24:                                               ; preds = %1
  %25 = load i32, ptr %4, align 4, !tbaa !36
  %26 = icmp ne i32 %25, -1
  br i1 %26, label %27, label %29

27:                                               ; preds = %24, %20
  %28 = load i32, ptr %5, align 4, !tbaa !36
  br label %33

29:                                               ; preds = %24, %20
  %30 = load i32, ptr %5, align 4, !tbaa !36
  %31 = sub i32 0, %30
  %32 = sub i32 %31, 1
  br label %33

33:                                               ; preds = %29, %27
  %34 = phi i32 [ %28, %27 ], [ %32, %29 ]
  call void @llvm.lifetime.end.p0(i64 4, ptr %5) #25
  call void @llvm.lifetime.end.p0(i64 4, ptr %4) #25
  call void @llvm.lifetime.end.p0(i64 8, ptr %3) #25
  ret i32 %34
}