; Function Attrs: nounwind sspstrong uwtable
define dso_local i32 @rb_proc_arity(i64 noundef %0) local_unnamed_addr #0 {
  %2 = alloca i32, align 4
  call void @llvm.lifetime.start.p0(i64 4, ptr nonnull %2) #21
  %3 = inttoptr i64 %0 to ptr
  %4 = getelementptr inbounds nuw i8, ptr %3, i64 32
  %5 = load ptr, ptr %4, align 8, !tbaa !7
  %6 = call fastcc i32 @rb_vm_block_min_max_arity(ptr noundef %5, ptr noundef nonnull %2)
  %7 = getelementptr inbounds nuw i8, ptr %5, i64 32
  %8 = load i8, ptr %7, align 8
  %9 = and i8 %8, 2
  %.not = icmp eq i8 %9, 0
  %10 = load i32, ptr %2, align 4, !tbaa !41
  br i1 %.not, label %13, label %11

11:                                               ; preds = %1
  %12 = icmp eq i32 %6, %10
  br i1 %12, label %16, label %14

13:                                               ; preds = %1
  %.not5 = icmp eq i32 %10, -1
  br i1 %.not5, label %14, label %16

14:                                               ; preds = %13, %11
  %15 = xor i32 %6, -1
  br label %16

16:                                               ; preds = %11, %13, %14
  %17 = phi i32 [ %15, %14 ], [ %6, %13 ], [ %6, %11 ]
  call void @llvm.lifetime.end.p0(i64 4, ptr nonnull %2) #21
  ret i32 %17
}